target datalayout = "e-m:e-p270:32:32-p271:32:32-p272:64:64-i64:64-i128:128-f80:128-n8:16:32:64-S128"
target triple = "x86_64-unknown-linux-gnu"

%"class.sat::literal" = type { i32 }
%class.approx_set_tpl = type { i32 }
%"class.sat::clause" = type { i32, i32, i32, %class.approx_set_tpl, i32, [0 x %"class.sat::literal"] }

; Function Attrs: mustprogress nounwind uwtable
define linkonce_odr hidden noundef i32 @_ZNK3sat6clause4glueEv(ptr noundef nonnull align 4 dereferenceable(20) %this) #4 comdat align 2 {
entry:
  %this.addr = alloca ptr, align 8
  store ptr %this, ptr %this.addr, align 8
  %this1 = load ptr, ptr %this.addr, align 8
  %m_glue = getelementptr inbounds %"class.sat::clause", ptr %this1, i32 0, i32 4
  %bf.load = load i32, ptr %m_glue, align 4
  %bf.lshr = lshr i32 %bf.load, 14
  %bf.clear = and i32 %bf.lshr, 255
  ret i32 %bf.clear
}

; Function Attrs: mustprogress nounwind uwtable
define linkonce_odr hidden noundef i32 @_ZNK3sat6clause4sizeEv(ptr noundef nonnull align 4 dereferenceable(20) %this) #4 comdat align 2 {
entry:
  %this.addr = alloca ptr, align 8
  store ptr %this, ptr %this.addr, align 8
  %this1 = load ptr, ptr %this.addr, align 8
  %m_size = getelementptr inbounds %"class.sat::clause", ptr %this1, i32 0, i32 1
  %0 = load i32, ptr %m_size, align 4
  ret i32 %0
}

; Function Attrs: mustprogress uwtable
define hidden noundef zeroext i1 @_ZNK3sat8parallel10enable_addERKNS_6clauseE(ptr noundef nonnull align 8 dereferenceable(176) %this, ptr noundef nonnull align 4 dereferenceable(20) %c) #5 align 2 {
entry:
  %this.addr = alloca ptr, align 8
  %c.addr = alloca ptr, align 8
  store ptr %this, ptr %this.addr, align 8
  store ptr %c, ptr %c.addr, align 8
  %0 = load ptr, ptr %c.addr, align 8
  %call = call noundef i32 @_ZNK3sat6clause4sizeEv(ptr noundef nonnull align 4 dereferenceable(20) %0)
  %cmp = icmp ule i32 %call, 40
  br i1 %cmp, label %land.lhs.true, label %lor.rhs

land.lhs.true:                                    ; preds = %entry
  %1 = load ptr, ptr %c.addr, align 8
  %call2 = call noundef i32 @_ZNK3sat6clause4glueEv(ptr noundef nonnull align 4 dereferenceable(20) %1)
  %cmp3 = icmp ule i32 %call2, 8
  br i1 %cmp3, label %lor.end, label %lor.rhs

lor.rhs:                                          ; preds = %land.lhs.true, %entry
  %2 = load ptr, ptr %c.addr, align 8
  %call4 = call noundef i32 @_ZNK3sat6clause4glueEv(ptr noundef nonnull align 4 dereferenceable(20) %2)
  %cmp5 = icmp ule i32 %call4, 2
  br label %lor.end

lor.end:                                          ; preds = %lor.rhs, %land.lhs.true
  %3 = phi i1 [ true, %land.lhs.true ], [ %cmp5, %lor.rhs ]
  ret i1 %3
}