; Function Attrs: mustprogress nofree norecurse nosync nounwind willreturn memory(argmem: read) uwtable
define hidden noundef zeroext i1 @_ZNK3sat8parallel10enable_addERKNS_6clauseE(ptr nocapture noundef nonnull readnone align 8 dereferenceable(176) %this, ptr nocapture noundef nonnull readonly align 4 dereferenceable(20) %c) local_unnamed_addr #10 align 2 {
entry:
  %m_size.i = getelementptr inbounds i8, ptr %c, i64 4
  %0 = load i32, ptr %m_size.i, align 4
  %cmp = icmp ult i32 %0, 41
  %m_glue.i = getelementptr inbounds i8, ptr %c, i64 16
  %bf.load.i = load i32, ptr %m_glue.i, align 4
  %1 = and i32 %bf.load.i, 4177920
  %. = select i1 %cmp, i32 147456, i32 49152
  %cmp3 = icmp ult i32 %1, %.
  ret i1 %cmp3
}